Certificate:
    Data:
        Version: 3 (0x2)
        Serial Number: 4097 (0x1001)
        Signature Algorithm: ecdsa-with-SHA384
        Issuer: C=US, ST=WA, O=Sea, OU=Sea Intermediary CA, CN=Sea Intermediary CA/emailAddress=grilledcheese@yummyinmytummy.us
        Validity
            Not Before: Mar 17 13:41:02 2019 GMT
            Not After : Mar 16 13:41:02 2021 GMT
        Subject: C=US, ST=NY, L=NY, O=Sea I Inc., OU=Sea I Inc., CN=iin.im/emailAddress=grilledcheese@yummyinmytummy.us
        Subject Public Key Info:
            Public Key Algorithm: id-ecPublicKey
                Public-Key: (384 bit)
                pub:
                    04:92:a2:cc:5c:dd:18:cd:f9:24:77:e6:f3:b5:5d:
                    ff:bc:e9:4e:e5:eb:b8:5e:2d:cd:bd:14:8c:e4:48:
                    50:9c:a7:35:12:93:75:4f:64:7b:e6:4c:08:3b:0c:
                    65:f8:3c:50:f1:3a:e2:22:7d:3b:4d:91:78:da:00:
                    84:17:99:a8:62:cd:d1:5d:fc:dd:74:48:47:01:bf:
                    f5:d1:aa:c5:12:28:4a:20:37:b8:64:a0:77:eb:d5:
                    69:5e:f8:d4:ee:16:e8
                ASN1 OID: secp384r1
                NIST CURVE: P-384
        X509v3 extensions:
            X509v3 Basic Constraints: 
                CA:FALSE
            Netscape Cert Type: 
                SSL Server
            Netscape Comment: 
                Grilled Cheese Generated Server Certificate
            X509v3 Subject Key Identifier: 
                B1:AF:F2:FE:26:1B:B4:03:A1:6B:FA:30:7A:7C:AD:59:C2:34:6B:77
            X509v3 Authority Key Identifier: 
                keyid:73:F7:1A:FE:2D:D9:F6:61:EB:70:F6:24:6A:33:9E:D7:E6:58:2E:E3
                DirName:/C=US/ST=WA/L=Seattle/O=Sea/OU=Sea Root CA/CN=Sea Root Certificate Authority/emailAddress=grilledcheese@yummyinmytummy.us
                serial:10:00

            X509v3 Key Usage: critical
                Digital Signature, Key Encipherment
            X509v3 Extended Key Usage: 
                TLS Web Server Authentication
            X509v3 CRL Distribution Points: 

                Full Name:
                  URI:http://crl.grilledcheese.us/whomovedmycheese.crl

            Authority Information Access: 
                CA Issuers - URI:http://ocsp.grilledcheese.us/cheddarcheeseroot.crt
                OCSP - URI:http://ocsp.grilledcheese.us/

            X509v3 Subject Alternative Name: 
                DNS:CN Name Here, DNS:Whatever else here
    Signature Algorithm: ecdsa-with-SHA384
         30:66:02:31:00:b9:e7:12:9b:e2:a2:3d:8b:4e:90:08:43:42:
         fd:87:14:5b:ea:52:41:87:23:be:b7:c7:a8:71:5a:29:5a:c7:
         5b:b2:16:5b:d2:12:30:59:17:b2:04:4e:6b:7a:3d:7a:0e:02:
         31:00:97:0f:6b:6b:c0:04:50:a7:c5:64:10:77:38:39:25:22:
         83:7a:b6:44:80:0a:de:c9:75:c3:f1:e2:e8:2f:39:fd:97:43:
         3c:43:7c:fc:af:d3:16:04:7e:26:96:fc:cc:a1
-----BEGIN CERTIFICATE-----
MIIEvzCCBESgAwIBAgICEAEwCgYIKoZIzj0EAwMwgZQxCzAJBgNVBAYTAlVTMQsw
CQYDVQQIDAJXQTEMMAoGA1UECgwDU2VhMRwwGgYDVQQLDBNTZWEgSW50ZXJtZWRp
YXJ5IENBMRwwGgYDVQQDDBNTZWEgSW50ZXJtZWRpYXJ5IENBMS4wLAYJKoZIhvcN
AQkBFh9ncmlsbGVkY2hlZXNlQHl1bW15aW5teXR1bW15LnVzMB4XDTE5MDMxNzEz
NDEwMloXDTIxMDMxNjEzNDEwMlowgZIxCzAJBgNVBAYTAlVTMQswCQYDVQQIDAJO
WTELMAkGA1UEBwwCTlkxEzARBgNVBAoMClNlYSBJIEluYy4xEzARBgNVBAsMClNl
YSBJIEluYy4xDzANBgNVBAMMBmlpbi5pbTEuMCwGCSqGSIb3DQEJARYfZ3JpbGxl
ZGNoZWVzZUB5dW1teWlubXl0dW1teS51czB2MBAGByqGSM49AgEGBSuBBAAiA2IA
BJKizFzdGM35JHfm87Vd/7zpTuXruF4tzb0UjORIUJynNRKTdU9ke+ZMCDsMZfg8
UPE64iJ9O02ReNoAhBeZqGLN0V383XRIRwG/9dGqxRIoSiA3uGSgd+vVaV741O4W
6KOCAmcwggJjMAkGA1UdEwQCMAAwEQYJYIZIAYb4QgEBBAQDAgZAMDoGCWCGSAGG
+EIBDQQtFitHcmlsbGVkIENoZWVzZSBHZW5lcmF0ZWQgU2VydmVyIENlcnRpZmlj
YXRlMB0GA1UdDgQWBBSxr/L+Jhu0A6Fr+jB6fK1ZwjRrdzCB1wYDVR0jBIHPMIHM
gBRz9xr+Ldn2Yetw9iRqM57X5lgu46GBr6SBrDCBqTELMAkGA1UEBhMCVVMxCzAJ
BgNVBAgMAldBMRAwDgYDVQQHDAdTZWF0dGxlMQwwCgYDVQQKDANTZWExFDASBgNV
BAsMC1NlYSBSb290IENBMScwJQYDVQQDDB5TZWEgUm9vdCBDZXJ0aWZpY2F0ZSBB
dXRob3JpdHkxLjAsBgkqhkiG9w0BCQEWH2dyaWxsZWRjaGVlc2VAeXVtbXlpbm15
dHVtbXkudXOCAhAAMA4GA1UdDwEB/wQEAwIFoDATBgNVHSUEDDAKBggrBgEFBQcD
ATBBBgNVHR8EOjA4MDagNKAyhjBodHRwOi8vY3JsLmdyaWxsZWRjaGVlc2UudXMv
d2hvbW92ZWRteWNoZWVzZS5jcmwweQYIKwYBBQUHAQEEbTBrMD4GCCsGAQUFBzAC
hjJodHRwOi8vb2NzcC5ncmlsbGVkY2hlZXNlLnVzL2NoZWRkYXJjaGVlc2Vyb290
LmNydDApBggrBgEFBQcwAYYdaHR0cDovL29jc3AuZ3JpbGxlZGNoZWVzZS51cy8w
KwYDVR0RBCQwIoIMQ04gTmFtZSBIZXJlghJXaGF0ZXZlciBlbHNlIGhlcmUwCgYI
KoZIzj0EAwMDaQAwZgIxALnnEpvioj2LTpAIQ0L9hxRb6lJBhyO+t8eocVopWsdb
shZb0hIwWReyBE5rej16DgIxAJcPa2vABFCnxWQQdzg5JSKDerZEgAreyXXD8eLo
Lzn9l0M8Q3z8r9MWBH4mlvzMoQ==
-----END CERTIFICATE-----
